target datalayout = "e-m:e-p270:32:32-p271:32:32-p272:64:64-i64:64-i128:128-f80:128-n8:16:32:64-S128"
target triple = "x86_64-pc-linux-gnu"

%"class.llvm::AArch64MCExpr" = type <{ %"class.llvm::MCTargetExpr", ptr, i32, [4 x i8] }>
%"class.llvm::MCTargetExpr" = type { ptr, %"class.llvm::MCExpr" }
%"class.llvm::MCExpr" = type <{ i8, i32, [3 x i8], %"class.llvm::SMLoc" }>
%"class.llvm::SMLoc" = type { ptr }

; Function Attrs: mustprogress nounwind uwtable
define linkonce_odr hidden noundef ptr @_ZNK4llvm13AArch64MCExpr10getSubExprEv(ptr noundef nonnull align 8 dereferenceable(36) %0) #0 comdat align 2 {
  %2 = alloca ptr, align 8
  store ptr %0, ptr %2, align 8
  %3 = load ptr, ptr %2, align 8
  %4 = getelementptr inbounds nuw %"class.llvm::AArch64MCExpr", ptr %3, i32 0, i32 1
  %5 = load ptr, ptr %4, align 8
  ret ptr %5
}

; Function Attrs: mustprogress nounwind uwtable
define linkonce_odr hidden noundef i32 @_ZN4llvm13AArch64MCExpr12getSymbolLocENS0_11VariantKindE(i32 noundef %0) #0 comdat align 2 {
  %2 = alloca i32, align 4
  store i32 %0, ptr %2, align 4
  %3 = load i32, ptr %2, align 4
  %4 = and i32 %3, 15
  ret i32 %4
}

; Function Attrs: mustprogress nounwind uwtable
define dso_local void @_ZNK4llvm13AArch64MCExpr24fixELFSymbolsInTLSFixupsERNS_11MCAssemblerE(ptr noundef nonnull align 8 dereferenceable(36) %0, ptr noundef nonnull align 1 %1) unnamed_addr #0 align 2 {
  %3 = alloca ptr, align 8
  %4 = alloca ptr, align 8
  store ptr %0, ptr %3, align 8
  store ptr %1, ptr %4, align 8
  %5 = load ptr, ptr %3, align 8
  %6 = getelementptr inbounds nuw %"class.llvm::AArch64MCExpr", ptr %5, i32 0, i32 2
  %7 = load i32, ptr %6, align 8
  %8 = call noundef i32 @_ZN4llvm13AArch64MCExpr12getSymbolLocENS0_11VariantKindE(i32 noundef %7)
  switch i32 %8, label %9 [
    i32 5, label %10
    i32 6, label %10
    i32 7, label %10
    i32 8, label %10
  ]

9:                                                ; preds = %2
  br label %14

10:                                               ; preds = %2, %2, %2, %2
  br label %11

11:                                               ; preds = %10
  %12 = call noundef ptr @_ZNK4llvm13AArch64MCExpr10getSubExprEv(ptr noundef nonnull align 8 dereferenceable(36) %5)
  %13 = load ptr, ptr %4, align 8
  call void @_ZL28fixELFSymbolsInTLSFixupsImplPKN4llvm6MCExprERNS_11MCAssemblerE(ptr noundef %12, ptr noundef nonnull align 1 %13)
  br label %14

14:                                               ; preds = %11, %9
  ret void
}