; Function Attrs: mustprogress nounwind uwtable
define dso_local void @_ZNK4llvm13AArch64MCExpr24fixELFSymbolsInTLSFixupsERNS_11MCAssemblerE(ptr nocapture noundef nonnull readonly align 8 dereferenceable(36) %0, ptr nocapture nonnull readnone align 1 %1) unnamed_addr #0 align 2 {
  %3 = getelementptr inbounds nuw i8, ptr %0, i64 32
  %4 = load i32, ptr %3, align 8
  %5 = and i32 %4, 15
  %.off = add nsw i32 %5, -5
  %switch = icmp ult i32 %.off, 4
  br i1 %switch, label %6, label %9

6:                                                ; preds = %2
  %7 = getelementptr inbounds nuw i8, ptr %0, i64 24
  %8 = load ptr, ptr %7, align 8
  tail call fastcc void @_ZL28fixELFSymbolsInTLSFixupsImplPKN4llvm6MCExprERNS_11MCAssemblerE(ptr noundef %8)
  br label %9

9:                                                ; preds = %2, %6
  ret void
}